; Function Attrs: nounwind uwtable
define ptr @l_Lean_Elab_pushInfoTree___at_Lean_Elab_OpenDecl_elabOpenDecl___spec__23___rarg___lambda__1(ptr noundef %0, ptr noundef %1) #0 {
  %.val = load i32, ptr %1, align 4, !tbaa !8
  %3 = icmp eq i32 %.val, 1
  br i1 %3, label %4, label %8

4:                                                ; preds = %2
  %5 = getelementptr inbounds nuw i8, ptr %1, i64 24
  %6 = load ptr, ptr %5, align 8, !tbaa !4
  %7 = tail call ptr @l_Lean_PersistentArray_push___rarg(ptr noundef %6, ptr noundef %0) #6
  store ptr %7, ptr %5, align 8, !tbaa !4
  br label %58

8:                                                ; preds = %2
  %9 = getelementptr i8, ptr %1, i64 32
  %.val29 = load i8, ptr %9, align 1, !tbaa !18
  %10 = getelementptr inbounds nuw i8, ptr %1, i64 8
  %11 = load ptr, ptr %10, align 8, !tbaa !4
  %12 = getelementptr inbounds nuw i8, ptr %1, i64 16
  %13 = load ptr, ptr %12, align 8, !tbaa !4
  %14 = getelementptr inbounds nuw i8, ptr %1, i64 24
  %15 = load ptr, ptr %14, align 8, !tbaa !4
  %16 = ptrtoint ptr %15 to i64
  %17 = and i64 %16, 1
  %.not = icmp eq i64 %17, 0
  br i1 %.not, label %18, label %lean_inc.exit28

18:                                               ; preds = %8
  %.val.i = load i32, ptr %15, align 4, !tbaa !8
  %19 = icmp sgt i32 %.val.i, 0
  br i1 %19, label %20, label %22, !prof !11

20:                                               ; preds = %18
  %21 = add nuw i32 %.val.i, 1
  store i32 %21, ptr %15, align 4, !tbaa !8
  br label %lean_inc.exit28

22:                                               ; preds = %18
  %.not.i30 = icmp eq i32 %.val.i, 0
  br i1 %.not.i30, label %lean_inc.exit28, label %23

23:                                               ; preds = %22
  tail call void @lean_inc_ref_cold(ptr noundef nonnull %15) #6
  br label %lean_inc.exit28

lean_inc.exit28:                                  ; preds = %23, %22, %20, %8
  %24 = ptrtoint ptr %13 to i64
  %25 = and i64 %24, 1
  %.not37 = icmp eq i64 %25, 0
  br i1 %.not37, label %26, label %lean_inc.exit27

26:                                               ; preds = %lean_inc.exit28
  %.val.i31 = load i32, ptr %13, align 4, !tbaa !8
  %27 = icmp sgt i32 %.val.i31, 0
  br i1 %27, label %28, label %30, !prof !11

28:                                               ; preds = %26
  %29 = add nuw i32 %.val.i31, 1
  store i32 %29, ptr %13, align 4, !tbaa !8
  br label %lean_inc.exit27

30:                                               ; preds = %26
  %.not.i32 = icmp eq i32 %.val.i31, 0
  br i1 %.not.i32, label %lean_inc.exit27, label %31

31:                                               ; preds = %30
  tail call void @lean_inc_ref_cold(ptr noundef nonnull %13) #6
  br label %lean_inc.exit27

lean_inc.exit27:                                  ; preds = %31, %30, %28, %lean_inc.exit28
  %32 = ptrtoint ptr %11 to i64
  %33 = and i64 %32, 1
  %.not38 = icmp eq i64 %33, 0
  br i1 %.not38, label %34, label %lean_inc.exit

34:                                               ; preds = %lean_inc.exit27
  %.val.i34 = load i32, ptr %11, align 4, !tbaa !8
  %35 = icmp sgt i32 %.val.i34, 0
  br i1 %35, label %36, label %38, !prof !11

36:                                               ; preds = %34
  %37 = add nuw i32 %.val.i34, 1
  store i32 %37, ptr %11, align 4, !tbaa !8
  br label %lean_inc.exit

38:                                               ; preds = %34
  %.not.i35 = icmp eq i32 %.val.i34, 0
  br i1 %.not.i35, label %lean_inc.exit, label %39

39:                                               ; preds = %38
  tail call void @lean_inc_ref_cold(ptr noundef nonnull %11) #6
  br label %lean_inc.exit

lean_inc.exit:                                    ; preds = %39, %38, %36, %lean_inc.exit27
  %40 = ptrtoint ptr %1 to i64
  %41 = and i64 %40, 1
  %.not39 = icmp eq i64 %41, 0
  br i1 %.not39, label %42, label %lean_dec.exit

42:                                               ; preds = %lean_inc.exit
  %43 = load i32, ptr %1, align 4, !tbaa !8
  %44 = icmp sgt i32 %43, 1
  br i1 %44, label %45, label %47, !prof !11

45:                                               ; preds = %42
  %46 = add nsw i32 %43, -1
  store i32 %46, ptr %1, align 4, !tbaa !8
  br label %lean_dec.exit

47:                                               ; preds = %42
  %.not.i = icmp eq i32 %43, 0
  br i1 %.not.i, label %lean_dec.exit, label %48

48:                                               ; preds = %47
  tail call void @lean_dec_ref_cold(ptr noundef nonnull %1) #6
  br label %lean_dec.exit

lean_dec.exit:                                    ; preds = %48, %47, %45, %lean_inc.exit
  %49 = tail call ptr @l_Lean_PersistentArray_push___rarg(ptr noundef %15, ptr noundef %0) #6
  tail call void @lean_inc_heartbeat() #6
  %50 = tail call noalias ptr @mi_malloc_small(i64 noundef 40) #6
  %51 = icmp eq ptr %50, null
  br i1 %51, label %52, label %lean_alloc_ctor.exit

52:                                               ; preds = %lean_dec.exit
  tail call void @lean_internal_panic_out_of_memory() #7
  unreachable

lean_alloc_ctor.exit:                             ; preds = %lean_dec.exit
  %53 = getelementptr inbounds nuw i8, ptr %50, i64 4
  %54 = getelementptr inbounds nuw i8, ptr %50, i64 32
  store i64 0, ptr %54, align 8, !tbaa !16
  store i32 1, ptr %50, align 4, !tbaa !8
  store i32 196648, ptr %53, align 4
  %55 = getelementptr inbounds nuw i8, ptr %50, i64 8
  store ptr %11, ptr %55, align 8, !tbaa !4
  %56 = getelementptr inbounds nuw i8, ptr %50, i64 16
  store ptr %13, ptr %56, align 8, !tbaa !4
  %57 = getelementptr inbounds nuw i8, ptr %50, i64 24
  store ptr %49, ptr %57, align 8, !tbaa !4
  store i8 %.val29, ptr %54, align 1, !tbaa !18
  br label %58

58:                                               ; preds = %lean_alloc_ctor.exit, %4
  %.0 = phi ptr [ %1, %4 ], [ %50, %lean_alloc_ctor.exit ]
  ret ptr %.0
}